target datalayout = "e-m:e-p270:32:32-p271:32:32-p272:64:64-i64:64-i128:128-f80:128-n8:16:32:64-S128"
target triple = "x86_64-pc-linux-gnu"

%struct.expert_field = type { i32, i32 }

@hf_nfapi_ul_bandwidth_support = internal global i32 0, align 4
@ett_nfapi_uplink_bandwidth_support = internal global i32 0, align 4
@ei_invalid_range = internal global %struct.expert_field zeroinitializer, align 4
@.str.1825 = private unnamed_addr constant [50 x i8] c"Invalid uplink bandwidth supported bits [0..0x3F]\00", align 1

; Function Attrs: nounwind uwtable
define internal void @dissect_ul_bandwidth_support_value(ptr noundef %0, ptr noundef %1) #0 {
  %3 = alloca ptr, align 8
  %4 = alloca ptr, align 8
  %5 = alloca i64, align 8
  %6 = alloca ptr, align 8
  store ptr %0, ptr %3, align 8
  store ptr %1, ptr %4, align 8
  %7 = load ptr, ptr %3, align 8
  %8 = call ptr @ptvcursor_tree(ptr noundef %7)
  %9 = load ptr, ptr %3, align 8
  %10 = call ptr @ptvcursor_tvbuff(ptr noundef %9)
  %11 = load ptr, ptr %3, align 8
  %12 = call i32 @ptvcursor_current_offset(ptr noundef %11)
  %13 = load i32, ptr @hf_nfapi_ul_bandwidth_support, align 4
  %14 = load i32, ptr @ett_nfapi_uplink_bandwidth_support, align 4
  %15 = call ptr @proto_tree_add_bitmask_ret_uint64(ptr noundef %8, ptr noundef %10, i32 noundef %12, i32 noundef %13, i32 noundef %14, ptr noundef @ul_bandwidth_support_fields, i32 noundef 0, ptr noundef %5)
  store ptr %15, ptr %6, align 8
  %16 = load i64, ptr %5, align 8
  %17 = icmp ugt i64 %16, 63
  br i1 %17, label %18, label %22

18:                                               ; preds = %2
  %19 = load ptr, ptr %4, align 8
  %20 = load ptr, ptr %6, align 8
  %21 = call ptr (ptr, ptr, ptr, ptr, ...) @expert_add_info_format(ptr noundef %19, ptr noundef %20, ptr noundef @ei_invalid_range, ptr noundef @.str.1825)
  br label %22

22:                                               ; preds = %18, %2
  %23 = load ptr, ptr %3, align 8
  call void @ptvcursor_advance(ptr noundef %23, i32 noundef 2)
  ret void
}